target datalayout = "e-m:e-p270:32:32-p271:32:32-p272:64:64-i64:64-i128:128-f80:128-n8:16:32:64-S128"
target triple = "x86_64-pc-linux-gnu"

%struct.STBIR_RESIZE = type { ptr, ptr, i32, i32, double, double, double, double, ptr, ptr, i32, i32, i32, i32, i32, i32, ptr, i32, i32, i32, i32, i32, i32, i32, i32, i32, i32, i32, i32, i32, i32, ptr, ptr, ptr, ptr, ptr }

; Function Attrs: nounwind uwtable
define internal void @stbir__init_and_set_layout(ptr noundef %0, i32 noundef %1, i32 noundef %2) #0 {
  %4 = alloca ptr, align 8
  %5 = alloca i32, align 4
  %6 = alloca i32, align 4
  store ptr %0, ptr %4, align 8
  store i32 %1, ptr %5, align 4
  store i32 %2, ptr %6, align 4
  %7 = load ptr, ptr %4, align 8
  %8 = getelementptr inbounds nuw %struct.STBIR_RESIZE, ptr %7, i32 0, i32 8
  store ptr null, ptr %8, align 8
  %9 = load ptr, ptr %4, align 8
  %10 = getelementptr inbounds nuw %struct.STBIR_RESIZE, ptr %9, i32 0, i32 16
  store ptr null, ptr %10, align 8
  %11 = load ptr, ptr %4, align 8
  %12 = load ptr, ptr %4, align 8
  %13 = getelementptr inbounds nuw %struct.STBIR_RESIZE, ptr %12, i32 0, i32 0
  store ptr %11, ptr %13, align 8
  %14 = load ptr, ptr %4, align 8
  %15 = getelementptr inbounds nuw %struct.STBIR_RESIZE, ptr %14, i32 0, i32 35
  store ptr null, ptr %15, align 8
  %16 = load ptr, ptr %4, align 8
  %17 = getelementptr inbounds nuw %struct.STBIR_RESIZE, ptr %16, i32 0, i32 22
  store i32 0, ptr %17, align 4
  %18 = load ptr, ptr %4, align 8
  %19 = getelementptr inbounds nuw %struct.STBIR_RESIZE, ptr %18, i32 0, i32 27
  store i32 0, ptr %19, align 8
  %20 = load ptr, ptr %4, align 8
  %21 = getelementptr inbounds nuw %struct.STBIR_RESIZE, ptr %20, i32 0, i32 31
  store ptr null, ptr %21, align 8
  %22 = load ptr, ptr %4, align 8
  %23 = getelementptr inbounds nuw %struct.STBIR_RESIZE, ptr %22, i32 0, i32 32
  store ptr null, ptr %23, align 8
  %24 = load ptr, ptr %4, align 8
  %25 = getelementptr inbounds nuw %struct.STBIR_RESIZE, ptr %24, i32 0, i32 28
  store i32 0, ptr %25, align 4
  %26 = load ptr, ptr %4, align 8
  %27 = getelementptr inbounds nuw %struct.STBIR_RESIZE, ptr %26, i32 0, i32 33
  store ptr null, ptr %27, align 8
  %28 = load ptr, ptr %4, align 8
  %29 = getelementptr inbounds nuw %struct.STBIR_RESIZE, ptr %28, i32 0, i32 34
  store ptr null, ptr %29, align 8
  %30 = load ptr, ptr %4, align 8
  %31 = getelementptr inbounds nuw %struct.STBIR_RESIZE, ptr %30, i32 0, i32 29
  store i32 0, ptr %31, align 8
  %32 = load ptr, ptr %4, align 8
  %33 = getelementptr inbounds nuw %struct.STBIR_RESIZE, ptr %32, i32 0, i32 30
  store i32 0, ptr %33, align 4
  %34 = load ptr, ptr %4, align 8
  %35 = getelementptr inbounds nuw %struct.STBIR_RESIZE, ptr %34, i32 0, i32 4
  store double 0.000000e+00, ptr %35, align 8
  %36 = load ptr, ptr %4, align 8
  %37 = getelementptr inbounds nuw %struct.STBIR_RESIZE, ptr %36, i32 0, i32 5
  store double 0.000000e+00, ptr %37, align 8
  %38 = load ptr, ptr %4, align 8
  %39 = getelementptr inbounds nuw %struct.STBIR_RESIZE, ptr %38, i32 0, i32 6
  store double 1.000000e+00, ptr %39, align 8
  %40 = load ptr, ptr %4, align 8
  %41 = getelementptr inbounds nuw %struct.STBIR_RESIZE, ptr %40, i32 0, i32 7
  store double 1.000000e+00, ptr %41, align 8
  %42 = load ptr, ptr %4, align 8
  %43 = getelementptr inbounds nuw %struct.STBIR_RESIZE, ptr %42, i32 0, i32 12
  store i32 0, ptr %43, align 8
  %44 = load ptr, ptr %4, align 8
  %45 = getelementptr inbounds nuw %struct.STBIR_RESIZE, ptr %44, i32 0, i32 13
  store i32 0, ptr %45, align 4
  %46 = load ptr, ptr %4, align 8
  %47 = getelementptr inbounds nuw %struct.STBIR_RESIZE, ptr %46, i32 0, i32 10
  %48 = load i32, ptr %47, align 8
  %49 = load ptr, ptr %4, align 8
  %50 = getelementptr inbounds nuw %struct.STBIR_RESIZE, ptr %49, i32 0, i32 14
  store i32 %48, ptr %50, align 8
  %51 = load ptr, ptr %4, align 8
  %52 = getelementptr inbounds nuw %struct.STBIR_RESIZE, ptr %51, i32 0, i32 11
  %53 = load i32, ptr %52, align 4
  %54 = load ptr, ptr %4, align 8
  %55 = getelementptr inbounds nuw %struct.STBIR_RESIZE, ptr %54, i32 0, i32 15
  store i32 %53, ptr %55, align 4
  %56 = load i32, ptr %6, align 4
  %57 = load ptr, ptr %4, align 8
  %58 = getelementptr inbounds nuw %struct.STBIR_RESIZE, ptr %57, i32 0, i32 25
  store i32 %56, ptr %58, align 8
  %59 = load i32, ptr %6, align 4
  %60 = load ptr, ptr %4, align 8
  %61 = getelementptr inbounds nuw %struct.STBIR_RESIZE, ptr %60, i32 0, i32 26
  store i32 %59, ptr %61, align 4
  %62 = load i32, ptr %5, align 4
  %63 = load ptr, ptr %4, align 8
  %64 = getelementptr inbounds nuw %struct.STBIR_RESIZE, ptr %63, i32 0, i32 23
  store i32 %62, ptr %64, align 8
  %65 = load i32, ptr %5, align 4
  %66 = load ptr, ptr %4, align 8
  %67 = getelementptr inbounds nuw %struct.STBIR_RESIZE, ptr %66, i32 0, i32 24
  store i32 %65, ptr %67, align 4
  %68 = load ptr, ptr %4, align 8
  %69 = getelementptr inbounds nuw %struct.STBIR_RESIZE, ptr %68, i32 0, i32 21
  store i32 1, ptr %69, align 8
  ret void
}

; Function Attrs: nounwind uwtable
define hidden void @stbir_resize_init(ptr noundef %0, ptr noundef %1, i32 noundef %2, i32 noundef %3, i32 noundef %4, ptr noundef %5, i32 noundef %6, i32 noundef %7, i32 noundef %8, i32 noundef %9, i32 noundef %10) #0 {
  %12 = alloca ptr, align 8
  %13 = alloca ptr, align 8
  %14 = alloca i32, align 4
  %15 = alloca i32, align 4
  %16 = alloca i32, align 4
  %17 = alloca ptr, align 8
  %18 = alloca i32, align 4
  %19 = alloca i32, align 4
  %20 = alloca i32, align 4
  %21 = alloca i32, align 4
  %22 = alloca i32, align 4
  store ptr %0, ptr %12, align 8
  store ptr %1, ptr %13, align 8
  store i32 %2, ptr %14, align 4
  store i32 %3, ptr %15, align 4
  store i32 %4, ptr %16, align 4
  store ptr %5, ptr %17, align 8
  store i32 %6, ptr %18, align 4
  store i32 %7, ptr %19, align 4
  store i32 %8, ptr %20, align 4
  store i32 %9, ptr %21, align 4
  store i32 %10, ptr %22, align 4
  %23 = load ptr, ptr %13, align 8
  %24 = load ptr, ptr %12, align 8
  %25 = getelementptr inbounds nuw %struct.STBIR_RESIZE, ptr %24, i32 0, i32 1
  store ptr %23, ptr %25, align 8
  %26 = load i32, ptr %14, align 4
  %27 = load ptr, ptr %12, align 8
  %28 = getelementptr inbounds nuw %struct.STBIR_RESIZE, ptr %27, i32 0, i32 2
  store i32 %26, ptr %28, align 8
  %29 = load i32, ptr %15, align 4
  %30 = load ptr, ptr %12, align 8
  %31 = getelementptr inbounds nuw %struct.STBIR_RESIZE, ptr %30, i32 0, i32 3
  store i32 %29, ptr %31, align 4
  %32 = load i32, ptr %16, align 4
  %33 = load ptr, ptr %12, align 8
  %34 = getelementptr inbounds nuw %struct.STBIR_RESIZE, ptr %33, i32 0, i32 17
  store i32 %32, ptr %34, align 8
  %35 = load ptr, ptr %17, align 8
  %36 = load ptr, ptr %12, align 8
  %37 = getelementptr inbounds nuw %struct.STBIR_RESIZE, ptr %36, i32 0, i32 9
  store ptr %35, ptr %37, align 8
  %38 = load i32, ptr %18, align 4
  %39 = load ptr, ptr %12, align 8
  %40 = getelementptr inbounds nuw %struct.STBIR_RESIZE, ptr %39, i32 0, i32 10
  store i32 %38, ptr %40, align 8
  %41 = load i32, ptr %19, align 4
  %42 = load ptr, ptr %12, align 8
  %43 = getelementptr inbounds nuw %struct.STBIR_RESIZE, ptr %42, i32 0, i32 11
  store i32 %41, ptr %43, align 4
  %44 = load i32, ptr %20, align 4
  %45 = load ptr, ptr %12, align 8
  %46 = getelementptr inbounds nuw %struct.STBIR_RESIZE, ptr %45, i32 0, i32 18
  store i32 %44, ptr %46, align 4
  %47 = load ptr, ptr %12, align 8
  %48 = getelementptr inbounds nuw %struct.STBIR_RESIZE, ptr %47, i32 0, i32 20
  store i32 0, ptr %48, align 4
  %49 = load ptr, ptr %12, align 8
  %50 = load i32, ptr %21, align 4
  %51 = load i32, ptr %22, align 4
  call void @stbir__init_and_set_layout(ptr noundef %49, i32 noundef %50, i32 noundef %51)
  ret void
}