; Function Attrs: mustprogress nofree norecurse nosync nounwind willreturn memory(argmem: write) uwtable
define hidden void @stbir_resize_init(ptr noundef initializes((8, 24), (56, 80), (96, 112), (116, 120)) %0, ptr noundef %1, i32 noundef %2, i32 noundef %3, i32 noundef %4, ptr noundef %5, i32 noundef %6, i32 noundef %7, i32 noundef %8, i32 noundef %9, i32 noundef %10) local_unnamed_addr #17 {
  %12 = getelementptr inbounds nuw i8, ptr %0, i64 8
  store ptr %1, ptr %12, align 8
  %13 = getelementptr inbounds nuw i8, ptr %0, i64 16
  store i32 %2, ptr %13, align 8
  %14 = getelementptr inbounds nuw i8, ptr %0, i64 20
  store i32 %3, ptr %14, align 4
  %15 = getelementptr inbounds nuw i8, ptr %0, i64 104
  store i32 %4, ptr %15, align 8
  %16 = getelementptr inbounds nuw i8, ptr %0, i64 64
  store ptr %5, ptr %16, align 8
  %17 = getelementptr inbounds nuw i8, ptr %0, i64 72
  store i32 %6, ptr %17, align 8
  %18 = getelementptr inbounds nuw i8, ptr %0, i64 76
  store i32 %7, ptr %18, align 4
  %19 = getelementptr inbounds nuw i8, ptr %0, i64 108
  store i32 %8, ptr %19, align 4
  %20 = getelementptr inbounds nuw i8, ptr %0, i64 116
  store i32 0, ptr %20, align 4
  %21 = getelementptr inbounds nuw i8, ptr %0, i64 56
  store ptr null, ptr %21, align 8
  %22 = getelementptr inbounds nuw i8, ptr %0, i64 96
  store ptr null, ptr %22, align 8
  store ptr %0, ptr %0, align 8
  %23 = getelementptr inbounds nuw i8, ptr %0, i64 124
  store i32 0, ptr %23, align 4
  %24 = getelementptr inbounds nuw i8, ptr %0, i64 144
  %25 = getelementptr inbounds nuw i8, ptr %0, i64 24
  %26 = getelementptr inbounds nuw i8, ptr %0, i64 40
  tail call void @llvm.memset.p0.i64(ptr noundef nonnull align 8 dereferenceable(16) %25, i8 0, i64 16, i1 false)
  tail call void @llvm.memset.p0.i64(ptr noundef nonnull align 8 dereferenceable(56) %24, i8 0, i64 56, i1 false)
  store double 1.000000e+00, ptr %26, align 8
  %27 = getelementptr inbounds nuw i8, ptr %0, i64 48
  store double 1.000000e+00, ptr %27, align 8
  %28 = getelementptr inbounds nuw i8, ptr %0, i64 80
  store i32 0, ptr %28, align 8
  %29 = getelementptr inbounds nuw i8, ptr %0, i64 84
  store i32 0, ptr %29, align 4
  %30 = getelementptr inbounds nuw i8, ptr %0, i64 88
  store i32 %6, ptr %30, align 8
  %31 = getelementptr inbounds nuw i8, ptr %0, i64 92
  store i32 %7, ptr %31, align 4
  %32 = getelementptr inbounds nuw i8, ptr %0, i64 136
  store i32 %10, ptr %32, align 8
  %33 = getelementptr inbounds nuw i8, ptr %0, i64 140
  store i32 %10, ptr %33, align 4
  %34 = getelementptr inbounds nuw i8, ptr %0, i64 128
  store i32 %9, ptr %34, align 8
  %35 = getelementptr inbounds nuw i8, ptr %0, i64 132
  store i32 %9, ptr %35, align 4
  %36 = getelementptr inbounds nuw i8, ptr %0, i64 120
  store i32 1, ptr %36, align 8
  ret void
}